target datalayout = "e-m:e-p270:32:32-p271:32:32-p272:64:64-i64:64-i128:128-f80:128-n8:16:32:64-S128"
target triple = "x86_64-pc-linux-gnu"

%struct.AVFilterLink = type { ptr, ptr, ptr, ptr, i32, i32, i32, i32, %struct.AVRational, i32, i32, i32, %struct.AVChannelLayout, %struct.AVRational, ptr, i32, %struct.AVFilterFormatsConfig, %struct.AVFilterFormatsConfig }
%struct.AVChannelLayout = type { i32, i32, %union.anon.0, ptr }
%union.anon.0 = type { i64 }
%struct.AVRational = type { i32, i32 }
%struct.AVFilterFormatsConfig = type { ptr, ptr, ptr, ptr, ptr }
%struct.FilterLinkInternal = type { %struct.FilterLink, ptr, %struct.FFFrameQueue, i32, i32, i64, i32, i32, i32, i32 }
%struct.FilterLink = type { %struct.AVFilterLink, ptr, i64, i64, i32, i32, i64, i64, i64, i64, %struct.AVRational, ptr }
%struct.FFFrameQueue = type { ptr, i64, i64, i64, %struct.FFFrameBucket, i64, i64, i64, i64, i32 }
%struct.FFFrameBucket = type { ptr }
%struct.AVBufferRef = type { ptr, ptr, i64 }
%struct.AVHWFramesContext = type { ptr, ptr, ptr, ptr, ptr, ptr, ptr, i32, i32, i32, i32, i32 }
%struct.AVFrame = type { [8 x ptr], [8 x i32], ptr, i32, i32, i32, i32, i32, %struct.AVRational, i64, i64, %struct.AVRational, i32, ptr, i32, i32, [8 x ptr], ptr, i32, ptr, i32, i32, i32, i32, i32, i32, i32, i64, ptr, i32, ptr, ptr, i64, i64, i64, i64, ptr, %struct.AVChannelLayout, i64 }

; Function Attrs: inlinehint nounwind uwtable
define internal ptr @ff_link_internal(ptr noundef %0) #2 {
  %2 = alloca ptr, align 8
  store ptr %0, ptr %2, align 8, !tbaa !4
  %3 = load ptr, ptr %2, align 8, !tbaa !4
  ret ptr %3
}

; Function Attrs: nounwind uwtable
define ptr @ff_default_get_video_buffer2(ptr noundef %0, i32 noundef %1, i32 noundef %2, i32 noundef %3) #0 {
  %5 = alloca ptr, align 8
  %6 = alloca ptr, align 8
  %7 = alloca i32, align 4
  %8 = alloca i32, align 4
  %9 = alloca i32, align 4
  %10 = alloca ptr, align 8
  %11 = alloca ptr, align 8
  %12 = alloca i32, align 4
  %13 = alloca i32, align 4
  %14 = alloca i32, align 4
  %15 = alloca i32, align 4
  %16 = alloca i32, align 4
  %17 = alloca i32, align 4
  store ptr %0, ptr %6, align 8, !tbaa !4
  store i32 %1, ptr %7, align 4, !tbaa !9
  store i32 %2, ptr %8, align 4, !tbaa !9
  store i32 %3, ptr %9, align 4, !tbaa !9
  call void @llvm.lifetime.start.p0(i64 8, ptr %10) #5
  %18 = load ptr, ptr %6, align 8, !tbaa !4
  %19 = call ptr @ff_link_internal(ptr noundef %18)
  store ptr %19, ptr %10, align 8, !tbaa !36
  call void @llvm.lifetime.start.p0(i64 8, ptr %11) #5
  store ptr null, ptr %11, align 8, !tbaa !32
  call void @llvm.lifetime.start.p0(i64 4, ptr %12) #5
  store i32 0, ptr %12, align 4, !tbaa !9
  call void @llvm.lifetime.start.p0(i64 4, ptr %13) #5
  store i32 0, ptr %13, align 4, !tbaa !9
  call void @llvm.lifetime.start.p0(i64 4, ptr %14) #5
  store i32 0, ptr %14, align 4, !tbaa !9
  call void @llvm.lifetime.start.p0(i64 4, ptr %15) #5
  store i32 -1, ptr %15, align 4, !tbaa !9
  %20 = load ptr, ptr %10, align 8, !tbaa !36
  %21 = getelementptr inbounds nuw %struct.FilterLinkInternal, ptr %20, i32 0, i32 0
  %22 = getelementptr inbounds nuw %struct.FilterLink, ptr %21, i32 0, i32 11
  %23 = load ptr, ptr %22, align 8, !tbaa !38
  %24 = icmp ne ptr %23, null
  br i1 %24, label %25, label %56

25:                                               ; preds = %4
  %26 = load ptr, ptr %10, align 8, !tbaa !36
  %27 = getelementptr inbounds nuw %struct.FilterLinkInternal, ptr %26, i32 0, i32 0
  %28 = getelementptr inbounds nuw %struct.FilterLink, ptr %27, i32 0, i32 11
  %29 = load ptr, ptr %28, align 8, !tbaa !38
  %30 = getelementptr inbounds nuw %struct.AVBufferRef, ptr %29, i32 0, i32 1
  %31 = load ptr, ptr %30, align 8, !tbaa !46
  %32 = getelementptr inbounds nuw %struct.AVHWFramesContext, ptr %31, i32 0, i32 8
  %33 = load i32, ptr %32, align 4, !tbaa !49
  %34 = load ptr, ptr %6, align 8, !tbaa !4
  %35 = getelementptr inbounds nuw %struct.AVFilterLink, ptr %34, i32 0, i32 5
  %36 = load i32, ptr %35, align 4, !tbaa !53
  %37 = icmp eq i32 %33, %36
  br i1 %37, label %38, label %56

38:                                               ; preds = %25
  call void @llvm.lifetime.start.p0(i64 4, ptr %16) #5
  %39 = call ptr @av_frame_alloc()
  store ptr %39, ptr %11, align 8, !tbaa !32
  %40 = load ptr, ptr %11, align 8, !tbaa !32
  %41 = icmp ne ptr %40, null
  br i1 %41, label %43, label %42

42:                                               ; preds = %38
  store ptr null, ptr %5, align 8
  store i32 1, ptr %17, align 4
  br label %55

43:                                               ; preds = %38
  %44 = load ptr, ptr %10, align 8, !tbaa !36
  %45 = getelementptr inbounds nuw %struct.FilterLinkInternal, ptr %44, i32 0, i32 0
  %46 = getelementptr inbounds nuw %struct.FilterLink, ptr %45, i32 0, i32 11
  %47 = load ptr, ptr %46, align 8, !tbaa !38
  %48 = load ptr, ptr %11, align 8, !tbaa !32
  %49 = call i32 @av_hwframe_get_buffer(ptr noundef %47, ptr noundef %48, i32 noundef 0)
  store i32 %49, ptr %16, align 4, !tbaa !9
  %50 = load i32, ptr %16, align 4, !tbaa !9
  %51 = icmp slt i32 %50, 0
  br i1 %51, label %52, label %53

52:                                               ; preds = %43
  call void @av_frame_free(ptr noundef %11)
  br label %53

53:                                               ; preds = %52, %43
  %54 = load ptr, ptr %11, align 8, !tbaa !32
  store ptr %54, ptr %5, align 8
  store i32 1, ptr %17, align 4
  br label %55

55:                                               ; preds = %53, %42
  call void @llvm.lifetime.end.p0(i64 4, ptr %16) #5
  br label %145

56:                                               ; preds = %25, %4
  %57 = load ptr, ptr %10, align 8, !tbaa !36
  %58 = getelementptr inbounds nuw %struct.FilterLinkInternal, ptr %57, i32 0, i32 1
  %59 = load ptr, ptr %58, align 8, !tbaa !54
  %60 = icmp ne ptr %59, null
  br i1 %60, label %77, label %61

61:                                               ; preds = %56
  %62 = load i32, ptr %7, align 4, !tbaa !9
  %63 = load i32, ptr %8, align 4, !tbaa !9
  %64 = load ptr, ptr %6, align 8, !tbaa !4
  %65 = getelementptr inbounds nuw %struct.AVFilterLink, ptr %64, i32 0, i32 5
  %66 = load i32, ptr %65, align 4, !tbaa !53
  %67 = load i32, ptr %9, align 4, !tbaa !9
  %68 = call ptr @ff_frame_pool_video_init(ptr noundef @av_buffer_allocz, i32 noundef %62, i32 noundef %63, i32 noundef %66, i32 noundef %67)
  %69 = load ptr, ptr %10, align 8, !tbaa !36
  %70 = getelementptr inbounds nuw %struct.FilterLinkInternal, ptr %69, i32 0, i32 1
  store ptr %68, ptr %70, align 8, !tbaa !54
  %71 = load ptr, ptr %10, align 8, !tbaa !36
  %72 = getelementptr inbounds nuw %struct.FilterLinkInternal, ptr %71, i32 0, i32 1
  %73 = load ptr, ptr %72, align 8, !tbaa !54
  %74 = icmp ne ptr %73, null
  br i1 %74, label %76, label %75

75:                                               ; preds = %61
  store ptr null, ptr %5, align 8
  store i32 1, ptr %17, align 4
  br label %145

76:                                               ; preds = %61
  br label %121

77:                                               ; preds = %56
  %78 = load ptr, ptr %10, align 8, !tbaa !36
  %79 = getelementptr inbounds nuw %struct.FilterLinkInternal, ptr %78, i32 0, i32 1
  %80 = load ptr, ptr %79, align 8, !tbaa !54
  %81 = call i32 @ff_frame_pool_get_video_config(ptr noundef %80, ptr noundef %12, ptr noundef %13, ptr noundef %15, ptr noundef %14)
  %82 = icmp slt i32 %81, 0
  br i1 %82, label %83, label %84

83:                                               ; preds = %77
  store ptr null, ptr %5, align 8
  store i32 1, ptr %17, align 4
  br label %145

84:                                               ; preds = %77
  %85 = load i32, ptr %12, align 4, !tbaa !9
  %86 = load i32, ptr %7, align 4, !tbaa !9
  %87 = icmp ne i32 %85, %86
  br i1 %87, label %102, label %88

88:                                               ; preds = %84
  %89 = load i32, ptr %13, align 4, !tbaa !9
  %90 = load i32, ptr %8, align 4, !tbaa !9
  %91 = icmp ne i32 %89, %90
  br i1 %91, label %102, label %92

92:                                               ; preds = %88
  %93 = load i32, ptr %15, align 4, !tbaa !9
  %94 = load ptr, ptr %6, align 8, !tbaa !4
  %95 = getelementptr inbounds nuw %struct.AVFilterLink, ptr %94, i32 0, i32 5
  %96 = load i32, ptr %95, align 4, !tbaa !53
  %97 = icmp ne i32 %93, %96
  br i1 %97, label %102, label %98

98:                                               ; preds = %92
  %99 = load i32, ptr %14, align 4, !tbaa !9
  %100 = load i32, ptr %9, align 4, !tbaa !9
  %101 = icmp ne i32 %99, %100
  br i1 %101, label %102, label %120

102:                                              ; preds = %98, %92, %88, %84
  %103 = load ptr, ptr %10, align 8, !tbaa !36
  %104 = getelementptr inbounds nuw %struct.FilterLinkInternal, ptr %103, i32 0, i32 1
  call void @ff_frame_pool_uninit(ptr noundef %104)
  %105 = load i32, ptr %7, align 4, !tbaa !9
  %106 = load i32, ptr %8, align 4, !tbaa !9
  %107 = load ptr, ptr %6, align 8, !tbaa !4
  %108 = getelementptr inbounds nuw %struct.AVFilterLink, ptr %107, i32 0, i32 5
  %109 = load i32, ptr %108, align 4, !tbaa !53
  %110 = load i32, ptr %9, align 4, !tbaa !9
  %111 = call ptr @ff_frame_pool_video_init(ptr noundef @av_buffer_allocz, i32 noundef %105, i32 noundef %106, i32 noundef %109, i32 noundef %110)
  %112 = load ptr, ptr %10, align 8, !tbaa !36
  %113 = getelementptr inbounds nuw %struct.FilterLinkInternal, ptr %112, i32 0, i32 1
  store ptr %111, ptr %113, align 8, !tbaa !54
  %114 = load ptr, ptr %10, align 8, !tbaa !36
  %115 = getelementptr inbounds nuw %struct.FilterLinkInternal, ptr %114, i32 0, i32 1
  %116 = load ptr, ptr %115, align 8, !tbaa !54
  %117 = icmp ne ptr %116, null
  br i1 %117, label %119, label %118

118:                                              ; preds = %102
  store ptr null, ptr %5, align 8
  store i32 1, ptr %17, align 4
  br label %145

119:                                              ; preds = %102
  br label %120

120:                                              ; preds = %119, %98
  br label %121

121:                                              ; preds = %120, %76
  %122 = load ptr, ptr %10, align 8, !tbaa !36
  %123 = getelementptr inbounds nuw %struct.FilterLinkInternal, ptr %122, i32 0, i32 1
  %124 = load ptr, ptr %123, align 8, !tbaa !54
  %125 = call ptr @ff_frame_pool_get(ptr noundef %124)
  store ptr %125, ptr %11, align 8, !tbaa !32
  %126 = load ptr, ptr %11, align 8, !tbaa !32
  %127 = icmp ne ptr %126, null
  br i1 %127, label %129, label %128

128:                                              ; preds = %121
  store ptr null, ptr %5, align 8
  store i32 1, ptr %17, align 4
  br label %145

129:                                              ; preds = %121
  %130 = load ptr, ptr %11, align 8, !tbaa !32
  %131 = getelementptr inbounds nuw %struct.AVFrame, ptr %130, i32 0, i32 8
  %132 = load ptr, ptr %6, align 8, !tbaa !4
  %133 = getelementptr inbounds nuw %struct.AVFilterLink, ptr %132, i32 0, i32 8
  call void @llvm.memcpy.p0.p0.i64(ptr align 4 %131, ptr align 8 %133, i64 8, i1 false), !tbaa.struct !55
  %134 = load ptr, ptr %6, align 8, !tbaa !4
  %135 = getelementptr inbounds nuw %struct.AVFilterLink, ptr %134, i32 0, i32 9
  %136 = load i32, ptr %135, align 8, !tbaa !56
  %137 = load ptr, ptr %11, align 8, !tbaa !32
  %138 = getelementptr inbounds nuw %struct.AVFrame, ptr %137, i32 0, i32 25
  store i32 %136, ptr %138, align 4, !tbaa !57
  %139 = load ptr, ptr %6, align 8, !tbaa !4
  %140 = getelementptr inbounds nuw %struct.AVFilterLink, ptr %139, i32 0, i32 10
  %141 = load i32, ptr %140, align 4, !tbaa !62
  %142 = load ptr, ptr %11, align 8, !tbaa !32
  %143 = getelementptr inbounds nuw %struct.AVFrame, ptr %142, i32 0, i32 22
  store i32 %141, ptr %143, align 8, !tbaa !63
  %144 = load ptr, ptr %11, align 8, !tbaa !32
  store ptr %144, ptr %5, align 8
  store i32 1, ptr %17, align 4
  br label %145

145:                                              ; preds = %129, %128, %118, %83, %75, %55
  call void @llvm.lifetime.end.p0(i64 4, ptr %15) #5
  call void @llvm.lifetime.end.p0(i64 4, ptr %14) #5
  call void @llvm.lifetime.end.p0(i64 4, ptr %13) #5
  call void @llvm.lifetime.end.p0(i64 4, ptr %12) #5
  call void @llvm.lifetime.end.p0(i64 8, ptr %11) #5
  call void @llvm.lifetime.end.p0(i64 8, ptr %10) #5
  %146 = load ptr, ptr %5, align 8
  ret ptr %146
}