; Function Attrs: nounwind uwtable
define ptr @ff_default_get_video_buffer2(ptr noundef %0, i32 noundef %1, i32 noundef %2, i32 noundef %3) local_unnamed_addr #0 {
  %5 = alloca ptr, align 8
  %6 = alloca i32, align 4
  %7 = alloca i32, align 4
  %8 = alloca i32, align 4
  %9 = alloca i32, align 4
  call void @llvm.lifetime.start.p0(i64 8, ptr nonnull %5) #3
  call void @llvm.lifetime.start.p0(i64 4, ptr nonnull %6) #3
  store i32 0, ptr %6, align 4, !tbaa !33
  call void @llvm.lifetime.start.p0(i64 4, ptr nonnull %7) #3
  store i32 0, ptr %7, align 4, !tbaa !33
  call void @llvm.lifetime.start.p0(i64 4, ptr nonnull %8) #3
  store i32 0, ptr %8, align 4, !tbaa !33
  call void @llvm.lifetime.start.p0(i64 4, ptr nonnull %9) #3
  store i32 -1, ptr %9, align 4, !tbaa !33
  %10 = getelementptr inbounds nuw i8, ptr %0, i64 272
  %11 = load ptr, ptr %10, align 8, !tbaa !34
  %.not = icmp eq ptr %11, null
  br i1 %.not, label %27, label %12

12:                                               ; preds = %4
  %13 = getelementptr inbounds nuw i8, ptr %11, i64 8
  %14 = load ptr, ptr %13, align 8, !tbaa !43
  %15 = getelementptr inbounds nuw i8, ptr %14, i64 60
  %16 = load i32, ptr %15, align 4, !tbaa !46
  %17 = getelementptr inbounds nuw i8, ptr %0, i64 36
  %18 = load i32, ptr %17, align 4, !tbaa !50
  %19 = icmp eq i32 %16, %18
  br i1 %19, label %20, label %27

20:                                               ; preds = %12
  %21 = tail call ptr @av_frame_alloc() #3
  store ptr %21, ptr %5, align 8, !tbaa !51
  %.not41 = icmp eq ptr %21, null
  br i1 %.not41, label %62, label %22

22:                                               ; preds = %20
  %23 = load ptr, ptr %10, align 8, !tbaa !34
  %24 = tail call i32 @av_hwframe_get_buffer(ptr noundef %23, ptr noundef nonnull %21, i32 noundef 0) #3
  %25 = icmp slt i32 %24, 0
  br i1 %25, label %26, label %62

26:                                               ; preds = %22
  call void @av_frame_free(ptr noundef nonnull %5) #3
  %.pre = load ptr, ptr %5, align 8, !tbaa !51
  br label %62

27:                                               ; preds = %12, %4
  %28 = getelementptr inbounds nuw i8, ptr %0, i64 280
  %29 = load ptr, ptr %28, align 8, !tbaa !52
  %.not33 = icmp eq ptr %29, null
  br i1 %.not33, label %30, label %34

30:                                               ; preds = %27
  %31 = getelementptr inbounds nuw i8, ptr %0, i64 36
  %32 = load i32, ptr %31, align 4, !tbaa !50
  %33 = tail call ptr @ff_frame_pool_video_init(ptr noundef nonnull @av_buffer_allocz, i32 noundef %1, i32 noundef %2, i32 noundef %32, i32 noundef %3) #3
  store ptr %33, ptr %28, align 8, !tbaa !52
  %.not34 = icmp eq ptr %33, null
  br i1 %.not34, label %62, label %49

34:                                               ; preds = %27
  %35 = call i32 @ff_frame_pool_get_video_config(ptr noundef nonnull %29, ptr noundef nonnull %6, ptr noundef nonnull %7, ptr noundef nonnull %9, ptr noundef nonnull %8) #3
  %36 = icmp slt i32 %35, 0
  br i1 %36, label %62, label %37

37:                                               ; preds = %34
  %38 = load i32, ptr %6, align 4, !tbaa !33
  %.not35 = icmp eq i32 %38, %1
  %39 = load i32, ptr %7, align 4
  %.not36 = icmp eq i32 %39, %2
  %or.cond = select i1 %.not35, i1 %.not36, i1 false
  br i1 %or.cond, label %40, label %45

40:                                               ; preds = %37
  %41 = load i32, ptr %9, align 4, !tbaa !33
  %42 = getelementptr inbounds nuw i8, ptr %0, i64 36
  %43 = load i32, ptr %42, align 4, !tbaa !50
  %.not37 = icmp eq i32 %41, %43
  %44 = load i32, ptr %8, align 4
  %.not38 = icmp eq i32 %44, %3
  %or.cond42 = select i1 %.not37, i1 %.not38, i1 false
  br i1 %or.cond42, label %._crit_edge, label %45

._crit_edge:                                      ; preds = %40
  %.pre43 = load ptr, ptr %28, align 8, !tbaa !52
  br label %49

45:                                               ; preds = %40, %37
  call void @ff_frame_pool_uninit(ptr noundef nonnull %28) #3
  %46 = getelementptr inbounds nuw i8, ptr %0, i64 36
  %47 = load i32, ptr %46, align 4, !tbaa !50
  %48 = call ptr @ff_frame_pool_video_init(ptr noundef nonnull @av_buffer_allocz, i32 noundef %1, i32 noundef %2, i32 noundef %47, i32 noundef %3) #3
  store ptr %48, ptr %28, align 8, !tbaa !52
  %.not39 = icmp eq ptr %48, null
  br i1 %.not39, label %62, label %49

49:                                               ; preds = %._crit_edge, %45, %30
  %50 = phi ptr [ %.pre43, %._crit_edge ], [ %48, %45 ], [ %33, %30 ]
  %51 = call ptr @ff_frame_pool_get(ptr noundef %50) #3
  %.not40 = icmp eq ptr %51, null
  br i1 %.not40, label %62, label %52

52:                                               ; preds = %49
  %53 = getelementptr inbounds nuw i8, ptr %51, i64 124
  %54 = getelementptr inbounds nuw i8, ptr %0, i64 48
  %55 = load i64, ptr %54, align 8
  store i64 %55, ptr %53, align 4
  %56 = getelementptr inbounds nuw i8, ptr %0, i64 56
  %57 = load i32, ptr %56, align 8, !tbaa !53
  %58 = getelementptr inbounds nuw i8, ptr %51, i64 292
  store i32 %57, ptr %58, align 4, !tbaa !54
  %59 = getelementptr inbounds nuw i8, ptr %0, i64 60
  %60 = load i32, ptr %59, align 4, !tbaa !59
  %61 = getelementptr inbounds nuw i8, ptr %51, i64 280
  store i32 %60, ptr %61, align 8, !tbaa !60
  br label %62

62:                                               ; preds = %22, %26, %49, %45, %34, %30, %20, %52
  %.1 = phi ptr [ %51, %52 ], [ null, %20 ], [ null, %30 ], [ null, %34 ], [ null, %45 ], [ null, %49 ], [ %.pre, %26 ], [ %21, %22 ]
  call void @llvm.lifetime.end.p0(i64 4, ptr nonnull %9) #3
  call void @llvm.lifetime.end.p0(i64 4, ptr nonnull %8) #3
  call void @llvm.lifetime.end.p0(i64 4, ptr nonnull %7) #3
  call void @llvm.lifetime.end.p0(i64 4, ptr nonnull %6) #3
  call void @llvm.lifetime.end.p0(i64 8, ptr nonnull %5) #3
  ret ptr %.1
}